; Function Attrs: null_pointer_is_valid sspstrong uwtable
define internal noundef ptr @wmem_block_fast_realloc(ptr noundef captures(none) %0, ptr noundef %1, i64 noundef %2) #0 {
  %4 = getelementptr i8, ptr %1, i64 -16
  %5 = load i32, ptr %4, align 4
  %6 = icmp eq i32 %5, -1
  br i1 %6, label %7, label %18

7:                                                ; preds = %3
  %8 = getelementptr i8, ptr %1, i64 -32
  %9 = add i64 %2, 32
  %10 = tail call ptr @wmem_realloc(ptr noundef null, ptr noundef %8, i64 noundef %9) #8
  %11 = load ptr, ptr %10, align 8
  %.not = icmp eq ptr %11, null
  %. = select i1 %.not, ptr %0, ptr %11
  %12 = getelementptr inbounds nuw i8, ptr %., i64 8
  store ptr %10, ptr %12, align 8
  %13 = getelementptr inbounds nuw i8, ptr %10, i64 8
  %14 = load ptr, ptr %13, align 8
  %.not28 = icmp eq ptr %14, null
  br i1 %.not28, label %16, label %15

15:                                               ; preds = %7
  store ptr %10, ptr %14, align 8
  br label %16

16:                                               ; preds = %15, %7
  %17 = getelementptr i8, ptr %10, i64 32
  br label %60

18:                                               ; preds = %3
  %19 = zext i32 %5 to i64
  %20 = icmp ugt i64 %2, %19
  br i1 %20, label %21, label %60

21:                                               ; preds = %18
  %22 = icmp ugt i64 %2, 2097120
  br i1 %22, label %23, label %33

23:                                               ; preds = %21
  %24 = add i64 %2, 32
  %25 = tail call noalias ptr @wmem_alloc(ptr noundef null, i64 noundef %24) #7
  %26 = getelementptr inbounds nuw i8, ptr %0, i64 8
  %27 = load ptr, ptr %26, align 8
  %28 = getelementptr inbounds nuw i8, ptr %25, i64 8
  store ptr %27, ptr %28, align 8
  %.not29.i = icmp eq ptr %27, null
  br i1 %.not29.i, label %30, label %29

29:                                               ; preds = %23
  store ptr %25, ptr %27, align 8
  br label %30

30:                                               ; preds = %29, %23
  store ptr null, ptr %25, align 8
  store ptr %25, ptr %26, align 8
  %31 = getelementptr i8, ptr %25, i64 16
  store i32 -1, ptr %31, align 4
  %32 = getelementptr i8, ptr %25, i64 32
  br label %wmem_block_fast_alloc.exit

33:                                               ; preds = %21
  %34 = trunc nuw i64 %2 to i32
  %35 = add nuw nsw i32 %34, 15
  %36 = and i32 %35, 4194288
  %37 = add nuw nsw i32 %36, 16
  %38 = load ptr, ptr %0, align 8
  %.not.i = icmp eq ptr %38, null
  br i1 %.not.i, label %44, label %39

39:                                               ; preds = %33
  %40 = getelementptr inbounds nuw i8, ptr %38, i64 8
  %41 = load i32, ptr %40, align 8
  %42 = sub i32 2097152, %41
  %43 = icmp slt i32 %42, %37
  br i1 %43, label %44, label %48

44:                                               ; preds = %39, %33
  %45 = tail call noalias dereferenceable_or_null(2097152) ptr @wmem_alloc(ptr noundef null, i64 noundef 2097152) #7
  %46 = getelementptr inbounds nuw i8, ptr %45, i64 8
  store i32 16, ptr %46, align 8
  %47 = load ptr, ptr %0, align 8
  store ptr %47, ptr %45, align 8
  store ptr %45, ptr %0, align 8
  br label %48

48:                                               ; preds = %44, %39
  %49 = phi i32 [ 16, %44 ], [ %41, %39 ]
  %50 = phi ptr [ %45, %44 ], [ %38, %39 ]
  %51 = sext i32 %49 to i64
  %52 = getelementptr i8, ptr %50, i64 %51
  store i32 %34, ptr %52, align 4
  %53 = load ptr, ptr %0, align 8
  %54 = getelementptr inbounds nuw i8, ptr %53, i64 8
  %55 = load i32, ptr %54, align 8
  %56 = add i32 %55, %37
  store i32 %56, ptr %54, align 8
  %57 = getelementptr i8, ptr %52, i64 16
  br label %wmem_block_fast_alloc.exit

wmem_block_fast_alloc.exit:                       ; preds = %30, %48
  %.0.i = phi ptr [ %32, %30 ], [ %57, %48 ]
  %58 = load i32, ptr %4, align 4
  %59 = zext i32 %58 to i64
  tail call void @llvm.memcpy.p0.p0.i64(ptr noundef align 1 %.0.i, ptr noundef align 1 %1, i64 noundef range(i64 0, 4294967296) %59, i1 noundef false) #9
  br label %60

60:                                               ; preds = %18, %wmem_block_fast_alloc.exit, %16
  %.0 = phi ptr [ %17, %16 ], [ %.0.i, %wmem_block_fast_alloc.exit ], [ %1, %18 ]
  ret ptr %.0
}